target datalayout = "e-m:e-p270:32:32-p271:32:32-p272:64:64-i64:64-i128:128-f80:128-n8:16:32:64-S128"
target triple = "x86_64-pc-linux-gnu"

%struct.rb_data_type_struct = type { ptr, %struct.anon, ptr, ptr, i64 }
%struct.anon = type { ptr, ptr, ptr, ptr, [1 x ptr] }
%struct.RTypedData = type { %struct.RBasic, ptr, i64, ptr }
%struct.RBasic = type { i64, i64 }

@ossl_bn_type = internal constant %struct.rb_data_type_struct { ptr @.str.62, %struct.anon { ptr null, ptr @ossl_bn_free, ptr null, ptr null, [1 x ptr] zeroinitializer }, ptr null, ptr null, i64 289 }, align 8
@eBNError = internal global i64 0, align 8
@rb_eRuntimeError = external global i64, align 8
@.str = private unnamed_addr constant [23 x i8] c"BN wasn't initialized!\00", align 1
@ossl_bn_ctx_key = internal global ptr null, align 8
@.str.2 = private unnamed_addr constant [19 x i8] c"Cannot init BN_CTX\00", align 1

; Function Attrs: nounwind sspstrong uwtable
define ptr @ossl_bn_ctx_get() #0 {
  %1 = alloca ptr, align 8
  call void @llvm.lifetime.start.p0(i64 8, ptr %1) #20
  %2 = load ptr, ptr @ossl_bn_ctx_key, align 8, !tbaa !19
  %3 = call ptr @rb_ractor_local_storage_ptr(ptr noundef %2)
  store ptr %3, ptr %1, align 8, !tbaa !21
  %4 = load ptr, ptr %1, align 8, !tbaa !21
  %5 = icmp ne ptr %4, null
  br i1 %5, label %14, label %6

6:                                                ; preds = %0
  %7 = call ptr @BN_CTX_new()
  store ptr %7, ptr %1, align 8, !tbaa !21
  %8 = icmp ne ptr %7, null
  br i1 %8, label %11, label %9

9:                                                ; preds = %6
  %10 = load i64, ptr @rb_eRuntimeError, align 8, !tbaa !11
  call void (i64, ptr, ...) @ossl_raise(i64 noundef %10, ptr noundef @.str.2) #21
  unreachable

11:                                               ; preds = %6
  %12 = load ptr, ptr @ossl_bn_ctx_key, align 8, !tbaa !19
  %13 = load ptr, ptr %1, align 8, !tbaa !21
  call void @rb_ractor_local_storage_ptr_set(ptr noundef %12, ptr noundef %13)
  br label %14

14:                                               ; preds = %11, %0
  %15 = load ptr, ptr %1, align 8, !tbaa !21
  call void @llvm.lifetime.end.p0(i64 8, ptr %1) #20
  ret ptr %15
}

; Function Attrs: nounwind sspstrong uwtable
define internal i64 @ossl_bn_mod_exp(i64 noundef %0, i64 noundef %1, i64 noundef %2) #0 {
  %4 = alloca i64, align 8
  %5 = alloca i64, align 8
  %6 = alloca i64, align 8
  %7 = alloca ptr, align 8
  %8 = alloca ptr, align 8
  %9 = alloca ptr, align 8
  %10 = alloca ptr, align 8
  %11 = alloca i64, align 8
  store i64 %0, ptr %4, align 8, !tbaa !11
  store i64 %1, ptr %5, align 8, !tbaa !11
  store i64 %2, ptr %6, align 8, !tbaa !11
  call void @llvm.lifetime.start.p0(i64 8, ptr %7) #20
  call void @llvm.lifetime.start.p0(i64 8, ptr %8) #20
  %12 = call ptr @ossl_bn_value_ptr(ptr noundef %5)
  store ptr %12, ptr %8, align 8, !tbaa !6
  call void @llvm.lifetime.start.p0(i64 8, ptr %9) #20
  %13 = call ptr @ossl_bn_value_ptr(ptr noundef %6)
  store ptr %13, ptr %9, align 8, !tbaa !6
  call void @llvm.lifetime.start.p0(i64 8, ptr %10) #20
  call void @llvm.lifetime.start.p0(i64 8, ptr %11) #20
  br label %14

14:                                               ; preds = %3
  %15 = load i64, ptr %4, align 8, !tbaa !11
  %16 = call ptr @rb_check_typeddata(i64 noundef %15, ptr noundef @ossl_bn_type)
  store ptr %16, ptr %7, align 8, !tbaa !6
  %17 = load ptr, ptr %7, align 8, !tbaa !6
  %18 = icmp ne ptr %17, null
  br i1 %18, label %21, label %19

19:                                               ; preds = %14
  %20 = load i64, ptr @rb_eRuntimeError, align 8, !tbaa !11
  call void (i64, ptr, ...) @ossl_raise(i64 noundef %20, ptr noundef @.str) #21
  unreachable

21:                                               ; preds = %14
  br label %22

22:                                               ; preds = %21
  br label %23

23:                                               ; preds = %22
  %24 = load i64, ptr %4, align 8, !tbaa !11
  %25 = call i64 @rb_obj_class(i64 noundef %24)
  %26 = call i64 @rb_data_typed_object_wrap(i64 noundef %25, ptr noundef null, ptr noundef @ossl_bn_type)
  store i64 %26, ptr %11, align 8, !tbaa !11
  %27 = call ptr @BN_new()
  store ptr %27, ptr %10, align 8, !tbaa !6
  %28 = icmp ne ptr %27, null
  br i1 %28, label %31, label %29

29:                                               ; preds = %23
  %30 = load i64, ptr @eBNError, align 8, !tbaa !11
  call void (i64, ptr, ...) @ossl_raise(i64 noundef %30, ptr noundef null) #21
  unreachable

31:                                               ; preds = %23
  %32 = load ptr, ptr %10, align 8, !tbaa !6
  %33 = load ptr, ptr %7, align 8, !tbaa !6
  %34 = load ptr, ptr %8, align 8, !tbaa !6
  %35 = load ptr, ptr %9, align 8, !tbaa !6
  %36 = call ptr @ossl_bn_ctx_get()
  %37 = call i32 @BN_mod_exp(ptr noundef %32, ptr noundef %33, ptr noundef %34, ptr noundef %35, ptr noundef %36)
  %38 = icmp sle i32 %37, 0
  br i1 %38, label %39, label %42

39:                                               ; preds = %31
  %40 = load ptr, ptr %10, align 8, !tbaa !6
  call void @BN_free(ptr noundef %40)
  %41 = load i64, ptr @eBNError, align 8, !tbaa !11
  call void (i64, ptr, ...) @ossl_raise(i64 noundef %41, ptr noundef null) #21
  unreachable

42:                                               ; preds = %31
  br label %43

43:                                               ; preds = %42
  %44 = load ptr, ptr %10, align 8, !tbaa !6
  %45 = icmp ne ptr %44, null
  br i1 %45, label %48, label %46

46:                                               ; preds = %43
  %47 = load i64, ptr @rb_eRuntimeError, align 8, !tbaa !11
  call void (i64, ptr, ...) @ossl_raise(i64 noundef %47, ptr noundef @.str) #21
  unreachable

48:                                               ; preds = %43
  %49 = load ptr, ptr %10, align 8, !tbaa !6
  %50 = load i64, ptr %11, align 8, !tbaa !11
  %51 = inttoptr i64 %50 to ptr
  %52 = getelementptr inbounds nuw %struct.RTypedData, ptr %51, i32 0, i32 3
  store ptr %49, ptr %52, align 8, !tbaa !13
  br label %53

53:                                               ; preds = %48
  br label %54

54:                                               ; preds = %53
  %55 = load i64, ptr %11, align 8, !tbaa !11
  call void @llvm.lifetime.end.p0(i64 8, ptr %11) #20
  call void @llvm.lifetime.end.p0(i64 8, ptr %10) #20
  call void @llvm.lifetime.end.p0(i64 8, ptr %9) #20
  call void @llvm.lifetime.end.p0(i64 8, ptr %8) #20
  call void @llvm.lifetime.end.p0(i64 8, ptr %7) #20
  ret i64 %55
}