; Function Attrs: nounwind sspstrong uwtable
define internal i64 @ossl_bn_mod_exp(i64 noundef %0, i64 noundef %1, i64 noundef %2) #0 {
  %4 = alloca i64, align 8
  %5 = alloca i64, align 8
  store i64 %1, ptr %4, align 8, !tbaa !6
  store i64 %2, ptr %5, align 8, !tbaa !6
  %6 = call ptr @ossl_bn_value_ptr(ptr noundef nonnull %4)
  %7 = call ptr @ossl_bn_value_ptr(ptr noundef nonnull %5)
  %8 = call ptr @rb_check_typeddata(i64 noundef %0, ptr noundef nonnull @ossl_bn_type) #11
  %.not = icmp eq ptr %8, null
  br i1 %.not, label %9, label %11

9:                                                ; preds = %3
  %10 = load i64, ptr @rb_eRuntimeError, align 8, !tbaa !6
  call void (i64, ptr, ...) @ossl_raise(i64 noundef %10, ptr noundef nonnull @.str) #12
  unreachable

11:                                               ; preds = %3
  %12 = call i64 @rb_obj_class(i64 noundef %0) #11
  %13 = call i64 @rb_data_typed_object_wrap(i64 noundef %12, ptr noundef null, ptr noundef nonnull @ossl_bn_type) #11
  %14 = call ptr @BN_new() #11
  %.not12 = icmp eq ptr %14, null
  br i1 %.not12, label %15, label %17

15:                                               ; preds = %11
  %16 = load i64, ptr @eBNError, align 8, !tbaa !6
  call void (i64, ptr, ...) @ossl_raise(i64 noundef %16, ptr noundef null) #12
  unreachable

17:                                               ; preds = %11
  %18 = load ptr, ptr @ossl_bn_ctx_key, align 8, !tbaa !16
  %19 = call ptr @rb_ractor_local_storage_ptr(ptr noundef %18) #11
  %.not.i = icmp eq ptr %19, null
  br i1 %.not.i, label %20, label %ossl_bn_ctx_get.exit

20:                                               ; preds = %17
  %21 = call ptr @BN_CTX_new() #11
  %.not5.i = icmp eq ptr %21, null
  br i1 %.not5.i, label %22, label %24

22:                                               ; preds = %20
  %23 = load i64, ptr @rb_eRuntimeError, align 8, !tbaa !6
  call void (i64, ptr, ...) @ossl_raise(i64 noundef %23, ptr noundef nonnull @.str.2) #12
  unreachable

24:                                               ; preds = %20
  %25 = load ptr, ptr @ossl_bn_ctx_key, align 8, !tbaa !16
  call void @rb_ractor_local_storage_ptr_set(ptr noundef %25, ptr noundef nonnull %21) #11
  br label %ossl_bn_ctx_get.exit

ossl_bn_ctx_get.exit:                             ; preds = %17, %24
  %.0.i = phi ptr [ %19, %17 ], [ %21, %24 ]
  %26 = call i32 @BN_mod_exp(ptr noundef nonnull %14, ptr noundef nonnull %8, ptr noundef nonnull %6, ptr noundef nonnull %7, ptr noundef nonnull %.0.i) #11
  %27 = icmp slt i32 %26, 1
  br i1 %27, label %28, label %30

28:                                               ; preds = %ossl_bn_ctx_get.exit
  call void @BN_free(ptr noundef nonnull %14) #11
  %29 = load i64, ptr @eBNError, align 8, !tbaa !6
  call void (i64, ptr, ...) @ossl_raise(i64 noundef %29, ptr noundef null) #12
  unreachable

30:                                               ; preds = %ossl_bn_ctx_get.exit
  %31 = inttoptr i64 %13 to ptr
  %32 = getelementptr inbounds nuw i8, ptr %31, i64 32
  store ptr %14, ptr %32, align 8, !tbaa !10
  ret i64 %13
}